; Function Attrs: mustprogress nounwind uwtable
define dso_local noundef ptr @_ZN4llvm9DIBuilder23createParameterVariableEPNS_7DIScopeENS_9StringRefEjPNS_6DIFileEjPNS_6DITypeEbNS_6DINode7DIFlagsENS_24MDTupleTypedArrayWrapperIS8_EE(ptr noundef nonnull align 8 dereferenceable(416) %0, ptr noundef %1, ptr %2, i64 %3, i32 noundef %4, ptr noundef %5, i32 noundef %6, ptr noundef %7, i1 noundef zeroext %8, i32 noundef %9, i64 %10) local_unnamed_addr #0 align 2 {
  %12 = alloca ptr, align 8
  %13 = getelementptr inbounds nuw i8, ptr %0, i64 8
  %14 = load ptr, ptr %13, align 8
  %15 = tail call noundef nonnull align 8 dereferenceable(16) ptr @_ZN4llvm9DIBuilder32getSubprogramNodesTrackingVectorEPKNS_7DIScopeE(ptr noundef nonnull align 8 dereferenceable(416) %0, ptr noundef %1)
  call void @llvm.lifetime.start.p0(i64 8, ptr nonnull %12)
  %16 = icmp eq i64 %3, 0
  br i1 %16, label %_ZN4llvm15DILocalVariable3getERNS_11LLVMContextEPNS_12DILocalScopeENS_9StringRefEPNS_6DIFileEjPNS_6DITypeEjNS_6DINode7DIFlagsEjNS_24MDTupleTypedArrayWrapperISA_EE.exit.i, label %17

17:                                               ; preds = %11
  %18 = tail call noundef ptr @_ZN4llvm8MDString3getERNS_11LLVMContextENS_9StringRefE(ptr noundef nonnull align 8 dereferenceable(8) %14, ptr %2, i64 %3) #13
  br label %_ZN4llvm15DILocalVariable3getERNS_11LLVMContextEPNS_12DILocalScopeENS_9StringRefEPNS_6DIFileEjPNS_6DITypeEjNS_6DINode7DIFlagsEjNS_24MDTupleTypedArrayWrapperISA_EE.exit.i

_ZN4llvm15DILocalVariable3getERNS_11LLVMContextEPNS_12DILocalScopeENS_9StringRefEPNS_6DIFileEjPNS_6DITypeEjNS_6DINode7DIFlagsEjNS_24MDTupleTypedArrayWrapperISA_EE.exit.i: ; preds = %17, %11
  %.0.i.i.i.i = phi ptr [ %18, %17 ], [ null, %11 ]
  %19 = inttoptr i64 %10 to ptr
  %20 = tail call noundef ptr @_ZN4llvm15DILocalVariable7getImplERNS_11LLVMContextEPNS_8MetadataEPNS_8MDStringES4_jS4_jNS_6DINode7DIFlagsEjS4_NS3_11StorageTypeEb(ptr noundef nonnull align 8 dereferenceable(8) %14, ptr noundef %1, ptr noundef %.0.i.i.i.i, ptr noundef %5, i32 noundef %6, ptr noundef %7, i32 noundef %4, i32 noundef %9, i32 noundef 0, ptr noundef %19, i32 noundef 0, i1 noundef zeroext true) #13
  store ptr %20, ptr %12, align 8
  br i1 %8, label %21, label %_ZL19createLocalVariableRN4llvm11LLVMContextERNS_15SmallVectorImplINS_18TypedTrackingMDRefINS_6MDNodeEEEEEPNS_7DIScopeENS_9StringRefEjPNS_6DIFileEjPNS_6DITypeEbNS_6DINode7DIFlagsEjNS_24MDTupleTypedArrayWrapperISF_EE.exit

21:                                               ; preds = %_ZN4llvm15DILocalVariable3getERNS_11LLVMContextEPNS_12DILocalScopeENS_9StringRefEPNS_6DIFileEjPNS_6DITypeEjNS_6DINode7DIFlagsEjNS_24MDTupleTypedArrayWrapperISA_EE.exit.i
  %22 = call noundef nonnull align 8 dereferenceable(8) ptr @_ZN4llvm15SmallVectorImplINS_18TypedTrackingMDRefINS_6MDNodeEEEE12emplace_backIJRPNS_15DILocalVariableEEEERS3_DpOT_(ptr noundef nonnull align 8 dereferenceable(16) %15, ptr noundef nonnull align 8 dereferenceable(8) %12)
  %.pre.i = load ptr, ptr %12, align 8
  br label %_ZL19createLocalVariableRN4llvm11LLVMContextERNS_15SmallVectorImplINS_18TypedTrackingMDRefINS_6MDNodeEEEEEPNS_7DIScopeENS_9StringRefEjPNS_6DIFileEjPNS_6DITypeEbNS_6DINode7DIFlagsEjNS_24MDTupleTypedArrayWrapperISF_EE.exit

_ZL19createLocalVariableRN4llvm11LLVMContextERNS_15SmallVectorImplINS_18TypedTrackingMDRefINS_6MDNodeEEEEEPNS_7DIScopeENS_9StringRefEjPNS_6DIFileEjPNS_6DITypeEbNS_6DINode7DIFlagsEjNS_24MDTupleTypedArrayWrapperISF_EE.exit: ; preds = %_ZN4llvm15DILocalVariable3getERNS_11LLVMContextEPNS_12DILocalScopeENS_9StringRefEPNS_6DIFileEjPNS_6DITypeEjNS_6DINode7DIFlagsEjNS_24MDTupleTypedArrayWrapperISA_EE.exit.i, %21
  %23 = phi ptr [ %.pre.i, %21 ], [ %20, %_ZN4llvm15DILocalVariable3getERNS_11LLVMContextEPNS_12DILocalScopeENS_9StringRefEPNS_6DIFileEjPNS_6DITypeEjNS_6DINode7DIFlagsEjNS_24MDTupleTypedArrayWrapperISA_EE.exit.i ]
  call void @llvm.lifetime.end.p0(i64 8, ptr nonnull %12)
  ret ptr %23
}